target datalayout = "e-m:e-p270:32:32-p271:32:32-p272:64:64-i64:64-i128:128-f80:128-n8:16:32:64-S128"
target triple = "x86_64-pc-linux-gnu"

%struct.LWLockHandle = type { ptr, i32 }

@num_held_lwlocks = internal global i32 0, align 4
@held_lwlocks = internal global [200 x %struct.LWLockHandle] zeroinitializer, align 16

; Function Attrs: nounwind uwtable
define dso_local zeroext i1 @LWLockAnyHeldByMe(ptr noundef %0, i32 noundef %1, i64 noundef %2) #0 {
  %4 = alloca i1, align 1
  %5 = alloca ptr, align 8
  %6 = alloca i32, align 4
  %7 = alloca i64, align 8
  %8 = alloca ptr, align 8
  %9 = alloca ptr, align 8
  %10 = alloca ptr, align 8
  %11 = alloca i32, align 4
  %12 = alloca i32, align 4
  store ptr %0, ptr %5, align 8
  store i32 %1, ptr %6, align 4
  store i64 %2, ptr %7, align 8
  call void @llvm.lifetime.start.p0(i64 8, ptr %8) #9
  call void @llvm.lifetime.start.p0(i64 8, ptr %9) #9
  call void @llvm.lifetime.start.p0(i64 8, ptr %10) #9
  call void @llvm.lifetime.start.p0(i64 4, ptr %11) #9
  %13 = load ptr, ptr %5, align 8
  store ptr %13, ptr %9, align 8
  %14 = load ptr, ptr %9, align 8
  %15 = load i32, ptr %6, align 4
  %16 = sext i32 %15 to i64
  %17 = load i64, ptr %7, align 8
  %18 = mul i64 %16, %17
  %19 = getelementptr inbounds nuw i8, ptr %14, i64 %18
  store ptr %19, ptr %10, align 8
  store i32 0, ptr %11, align 4
  br label %20

20:                                               ; preds = %48, %3
  %21 = load i32, ptr %11, align 4
  %22 = load i32, ptr @num_held_lwlocks, align 4
  %23 = icmp slt i32 %21, %22
  br i1 %23, label %24, label %51

24:                                               ; preds = %20
  %25 = load i32, ptr %11, align 4
  %26 = sext i32 %25 to i64
  %27 = getelementptr inbounds [200 x %struct.LWLockHandle], ptr @held_lwlocks, i64 0, i64 %26
  %28 = getelementptr inbounds nuw %struct.LWLockHandle, ptr %27, i32 0, i32 0
  %29 = load ptr, ptr %28, align 16
  store ptr %29, ptr %8, align 8
  %30 = load ptr, ptr %8, align 8
  %31 = load ptr, ptr %9, align 8
  %32 = icmp uge ptr %30, %31
  br i1 %32, label %33, label %47

33:                                               ; preds = %24
  %34 = load ptr, ptr %8, align 8
  %35 = load ptr, ptr %10, align 8
  %36 = icmp ult ptr %34, %35
  br i1 %36, label %37, label %47

37:                                               ; preds = %33
  %38 = load ptr, ptr %8, align 8
  %39 = load ptr, ptr %9, align 8
  %40 = ptrtoint ptr %38 to i64
  %41 = ptrtoint ptr %39 to i64
  %42 = sub i64 %40, %41
  %43 = load i64, ptr %7, align 8
  %44 = urem i64 %42, %43
  %45 = icmp eq i64 %44, 0
  br i1 %45, label %46, label %47

46:                                               ; preds = %37
  store i1 true, ptr %4, align 1
  store i32 1, ptr %12, align 4
  br label %52

47:                                               ; preds = %37, %33, %24
  br label %48

48:                                               ; preds = %47
  %49 = load i32, ptr %11, align 4
  %50 = add i32 %49, 1
  store i32 %50, ptr %11, align 4
  br label %20, !llvm.loop !34

51:                                               ; preds = %20
  store i1 false, ptr %4, align 1
  store i32 1, ptr %12, align 4
  br label %52

52:                                               ; preds = %51, %46
  call void @llvm.lifetime.end.p0(i64 4, ptr %11) #9
  call void @llvm.lifetime.end.p0(i64 8, ptr %10) #9
  call void @llvm.lifetime.end.p0(i64 8, ptr %9) #9
  call void @llvm.lifetime.end.p0(i64 8, ptr %8) #9
  %53 = load i1, ptr %4, align 1
  ret i1 %53
}