; Function Attrs: nofree norecurse nosync nounwind memory(read, argmem: none, inaccessiblemem: none) uwtable
define dso_local noundef zeroext i1 @LWLockAnyHeldByMe(ptr noundef %0, i32 noundef %1, i64 noundef %2) local_unnamed_addr #10 {
  %4 = sext i32 %1 to i64
  %5 = mul i64 %2, %4
  %6 = getelementptr inbounds nuw i8, ptr %0, i64 %5
  %7 = load i32, ptr @num_held_lwlocks, align 4
  %8 = icmp sgt i32 %7, 0
  br i1 %8, label %.lr.ph, label %._crit_edge

.lr.ph:                                           ; preds = %3
  %9 = ptrtoint ptr %0 to i64
  %wide.trip.count = zext nneg i32 %7 to i64
  br label %10

10:                                               ; preds = %.lr.ph, %19
  %indvars.iv = phi i64 [ 0, %.lr.ph ], [ %indvars.iv.next, %19 ]
  %11 = getelementptr inbounds nuw [200 x %struct.LWLockHandle], ptr @held_lwlocks, i64 0, i64 %indvars.iv
  %12 = load ptr, ptr %11, align 16
  %.not = icmp uge ptr %12, %0
  %13 = icmp ult ptr %12, %6
  %or.cond = select i1 %.not, i1 %13, i1 false
  br i1 %or.cond, label %14, label %19

14:                                               ; preds = %10
  %15 = ptrtoint ptr %12 to i64
  %16 = sub i64 %15, %9
  %17 = urem i64 %16, %2
  %18 = icmp eq i64 %17, 0
  br i1 %18, label %._crit_edge, label %19

19:                                               ; preds = %10, %14
  %indvars.iv.next = add nuw nsw i64 %indvars.iv, 1
  %exitcond.not = icmp eq i64 %indvars.iv.next, %wide.trip.count
  br i1 %exitcond.not, label %._crit_edge, label %10, !llvm.loop !35

._crit_edge:                                      ; preds = %14, %19, %3
  %.lcssa = phi i1 [ false, %3 ], [ false, %19 ], [ true, %14 ]
  ret i1 %.lcssa
}